target datalayout = "e-m:e-p270:32:32-p271:32:32-p272:64:64-i64:64-i128:128-f80:128-n8:16:32:64-S128"
target triple = "x86_64-pc-linux-gnu"

%struct.PJconsts = type { ptr, ptr, ptr, ptr, ptr, ptr, ptr, ptr, ptr, ptr, ptr, ptr, i32, ptr, ptr, ptr, ptr, ptr, ptr, ptr, ptr, double, double, double, double, double, double, double, double, double, double, double, double, double, double, double, double, double, double, double, double, double, double, i32, i32, i32, i32, i32, i32, i32, i32, i32, i32, i32, ptr, ptr, ptr, ptr, ptr, ptr, double, double, double, double, double, double, double, double, double, double, double, i32, [7 x double], i32, ptr, ptr, double, double, i32, [4 x i8], %"class.std::shared_ptr", i8, double, i8, %"class.std::__cxx11::basic_string", %"class.std::__cxx11::basic_string", %"class.std::__cxx11::basic_string", i8, %"class.std::vector", i32, %"class.std::vector.3", i32, i8, i8, i8, ptr }
%"class.std::shared_ptr" = type { %"class.std::__shared_ptr" }
%"class.std::__shared_ptr" = type { ptr, %"class.std::__shared_count" }
%"class.std::__shared_count" = type { ptr }
%"class.std::__cxx11::basic_string" = type { %"struct.std::__cxx11::basic_string<char>::_Alloc_hider", i64, %union.anon }
%"struct.std::__cxx11::basic_string<char>::_Alloc_hider" = type { ptr }
%union.anon = type { i64, [8 x i8] }
%"class.std::vector" = type { %"struct.std::_Vector_base" }
%"struct.std::_Vector_base" = type { %"struct.std::_Vector_base<osgeo::proj::operation::GridDescription, std::allocator<osgeo::proj::operation::GridDescription>>::_Vector_impl" }
%"struct.std::_Vector_base<osgeo::proj::operation::GridDescription, std::allocator<osgeo::proj::operation::GridDescription>>::_Vector_impl" = type { %"struct.std::_Vector_base<osgeo::proj::operation::GridDescription, std::allocator<osgeo::proj::operation::GridDescription>>::_Vector_impl_data" }
%"struct.std::_Vector_base<osgeo::proj::operation::GridDescription, std::allocator<osgeo::proj::operation::GridDescription>>::_Vector_impl_data" = type { ptr, ptr, ptr }
%"class.std::vector.3" = type { %"struct.std::_Vector_base.4" }
%"struct.std::_Vector_base.4" = type { %"struct.std::_Vector_base<PJCoordOperation, std::allocator<PJCoordOperation>>::_Vector_impl" }
%"struct.std::_Vector_base<PJCoordOperation, std::allocator<PJCoordOperation>>::_Vector_impl" = type { %"struct.std::_Vector_base<PJCoordOperation, std::allocator<PJCoordOperation>>::_Vector_impl_data" }
%"struct.std::_Vector_base<PJCoordOperation, std::allocator<PJCoordOperation>>::_Vector_impl_data" = type { ptr, ptr, ptr }
%"struct.(anonymous namespace)::pq_hammer" = type { double, double, double }
%struct.PJ_XY = type { double, double }
%struct.PJ_LP = type { double, double }

; Function Attrs: mustprogress uwtable
define internal { double, double } @_ZL16hammer_s_inverse5PJ_XYP8PJconsts(double %0, double %1, ptr noundef %2) #0 {
  %4 = alloca %struct.PJ_LP, align 8
  %5 = alloca %struct.PJ_XY, align 8
  %6 = alloca ptr, align 8
  %7 = alloca ptr, align 8
  %8 = alloca double, align 8
  %9 = getelementptr inbounds nuw { double, double }, ptr %5, i32 0, i32 0
  store double %0, ptr %9, align 8
  %10 = getelementptr inbounds nuw { double, double }, ptr %5, i32 0, i32 1
  store double %1, ptr %10, align 8
  store ptr %2, ptr %6, align 8, !tbaa !3
  call void @llvm.memset.p0.i64(ptr align 8 %4, i8 0, i64 16, i1 false)
  call void @llvm.lifetime.start.p0(i64 8, ptr %7) #8
  %11 = load ptr, ptr %6, align 8, !tbaa !3
  %12 = getelementptr inbounds nuw %struct.PJconsts, ptr %11, i32 0, i32 11
  %13 = load ptr, ptr %12, align 8, !tbaa !43
  store ptr %13, ptr %7, align 8, !tbaa !41
  call void @llvm.lifetime.start.p0(i64 8, ptr %8) #8
  %14 = load ptr, ptr %7, align 8, !tbaa !41
  %15 = getelementptr inbounds nuw %"struct.(anonymous namespace)::pq_hammer", ptr %14, i32 0, i32 0
  %16 = load double, ptr %15, align 8, !tbaa !47
  %17 = fmul double 2.500000e-01, %16
  %18 = load ptr, ptr %7, align 8, !tbaa !41
  %19 = getelementptr inbounds nuw %"struct.(anonymous namespace)::pq_hammer", ptr %18, i32 0, i32 0
  %20 = load double, ptr %19, align 8, !tbaa !47
  %21 = fmul double %17, %20
  %22 = getelementptr inbounds nuw %struct.PJ_XY, ptr %5, i32 0, i32 0
  %23 = load double, ptr %22, align 8, !tbaa !60
  %24 = fmul double %21, %23
  %25 = getelementptr inbounds nuw %struct.PJ_XY, ptr %5, i32 0, i32 0
  %26 = load double, ptr %25, align 8, !tbaa !60
  %27 = fneg double %24
  %28 = call double @llvm.fmuladd.f64(double %27, double %26, double 1.000000e+00)
  %29 = getelementptr inbounds nuw %struct.PJ_XY, ptr %5, i32 0, i32 1
  %30 = load double, ptr %29, align 8, !tbaa !62
  %31 = fmul double 2.500000e-01, %30
  %32 = getelementptr inbounds nuw %struct.PJ_XY, ptr %5, i32 0, i32 1
  %33 = load double, ptr %32, align 8, !tbaa !62
  %34 = fneg double %31
  %35 = call double @llvm.fmuladd.f64(double %34, double %33, double %28)
  %36 = call double @sqrt(double noundef %35) #8, !tbaa !56
  store double %36, ptr %8, align 8, !tbaa !57
  %37 = load double, ptr %8, align 8, !tbaa !57
  %38 = fmul double 2.000000e+00, %37
  %39 = load double, ptr %8, align 8, !tbaa !57
  %40 = call double @llvm.fmuladd.f64(double %38, double %39, double -1.000000e+00)
  %41 = call double @llvm.fabs.f64(double %40)
  %42 = fcmp olt double %41, 1.000000e-10
  br i1 %42, label %43, label %48

43:                                               ; preds = %3
  %44 = getelementptr inbounds nuw %struct.PJ_LP, ptr %4, i32 0, i32 0
  store double 0x7FF0000000000000, ptr %44, align 8, !tbaa !58
  %45 = getelementptr inbounds nuw %struct.PJ_LP, ptr %4, i32 0, i32 1
  store double 0x7FF0000000000000, ptr %45, align 8, !tbaa !54
  %46 = load ptr, ptr %6, align 8, !tbaa !3
  %47 = call i32 @proj_errno_set(ptr noundef %46, i32 noundef 2050)
  br label %76

48:                                               ; preds = %3
  %49 = load ptr, ptr %7, align 8, !tbaa !41
  %50 = getelementptr inbounds nuw %"struct.(anonymous namespace)::pq_hammer", ptr %49, i32 0, i32 0
  %51 = load double, ptr %50, align 8, !tbaa !47
  %52 = getelementptr inbounds nuw %struct.PJ_XY, ptr %5, i32 0, i32 0
  %53 = load double, ptr %52, align 8, !tbaa !60
  %54 = fmul double %51, %53
  %55 = load double, ptr %8, align 8, !tbaa !57
  %56 = fmul double %54, %55
  %57 = load double, ptr %8, align 8, !tbaa !57
  %58 = fmul double 2.000000e+00, %57
  %59 = load double, ptr %8, align 8, !tbaa !57
  %60 = call double @llvm.fmuladd.f64(double %58, double %59, double -1.000000e+00)
  %61 = call noundef double @_Z6aatan2dd(double noundef %56, double noundef %60)
  %62 = load ptr, ptr %7, align 8, !tbaa !41
  %63 = getelementptr inbounds nuw %"struct.(anonymous namespace)::pq_hammer", ptr %62, i32 0, i32 0
  %64 = load double, ptr %63, align 8, !tbaa !47
  %65 = fdiv double %61, %64
  %66 = getelementptr inbounds nuw %struct.PJ_LP, ptr %4, i32 0, i32 0
  store double %65, ptr %66, align 8, !tbaa !58
  %67 = load ptr, ptr %6, align 8, !tbaa !3
  %68 = getelementptr inbounds nuw %struct.PJconsts, ptr %67, i32 0, i32 0
  %69 = load ptr, ptr %68, align 8, !tbaa !44
  %70 = load double, ptr %8, align 8, !tbaa !57
  %71 = getelementptr inbounds nuw %struct.PJ_XY, ptr %5, i32 0, i32 1
  %72 = load double, ptr %71, align 8, !tbaa !62
  %73 = fmul double %70, %72
  %74 = call noundef double @_Z5aasinP6pj_ctxd(ptr noundef %69, double noundef %73)
  %75 = getelementptr inbounds nuw %struct.PJ_LP, ptr %4, i32 0, i32 1
  store double %74, ptr %75, align 8, !tbaa !54
  br label %76

76:                                               ; preds = %48, %43
  call void @llvm.lifetime.end.p0(i64 8, ptr %8) #8
  call void @llvm.lifetime.end.p0(i64 8, ptr %7) #8
  %77 = load { double, double }, ptr %4, align 8
  ret { double, double } %77
}