; Function Attrs: mustprogress uwtable
define internal { double, double } @_ZL16hammer_s_inverse5PJ_XYP8PJconsts(double %0, double %1, ptr noundef %2) #0 {
  %4 = getelementptr inbounds nuw i8, ptr %2, i64 88
  %5 = load ptr, ptr %4, align 8, !tbaa !40
  %6 = load double, ptr %5, align 8, !tbaa !43
  %7 = fmul double %6, 2.500000e-01
  %8 = fmul double %6, %7
  %9 = fneg double %0
  %10 = fmul double %8, %9
  %11 = tail call double @llvm.fmuladd.f64(double %10, double %0, double 1.000000e+00)
  %12 = fmul double %1, -2.500000e-01
  %13 = tail call double @llvm.fmuladd.f64(double %12, double %1, double %11)
  %14 = tail call double @sqrt(double noundef %13) #7, !tbaa !50
  %15 = fmul double %14, 2.000000e+00
  %16 = tail call double @llvm.fmuladd.f64(double %15, double %14, double -1.000000e+00)
  %17 = tail call double @llvm.fabs.f64(double %16)
  %18 = fcmp olt double %17, 1.000000e-10
  br i1 %18, label %19, label %21

19:                                               ; preds = %3
  %20 = tail call i32 @proj_errno_set(ptr noundef nonnull %2, i32 noundef 2050)
  br label %30

21:                                               ; preds = %3
  %22 = fmul double %0, %6
  %23 = fmul double %22, %14
  %24 = tail call noundef double @_Z6aatan2dd(double noundef %23, double noundef %16)
  %25 = load double, ptr %5, align 8, !tbaa !43
  %26 = fdiv double %24, %25
  %27 = load ptr, ptr %2, align 8, !tbaa !41
  %28 = fmul double %1, %14
  %29 = tail call noundef double @_Z5aasinP6pj_ctxd(ptr noundef %27, double noundef %28)
  br label %30

30:                                               ; preds = %21, %19
  %.sroa.418.0 = phi double [ 0x7FF0000000000000, %19 ], [ %29, %21 ]
  %.sroa.017.0 = phi double [ 0x7FF0000000000000, %19 ], [ %26, %21 ]
  %.fca.0.insert = insertvalue { double, double } poison, double %.sroa.017.0, 0
  %.fca.1.insert = insertvalue { double, double } %.fca.0.insert, double %.sroa.418.0, 1
  ret { double, double } %.fca.1.insert
}